; Function Attrs: nounwind uwtable
define dso_local ptr @WinGetPartitionLocalMemory(ptr noundef captures(none) %0, i64 noundef %1) local_unnamed_addr #0 {
  %3 = getelementptr inbounds nuw i8, ptr %0, i64 24
  %4 = load ptr, ptr %3, align 8
  %5 = icmp eq ptr %4, null
  br i1 %5, label %6, label %12

6:                                                ; preds = %2
  %7 = getelementptr inbounds nuw i8, ptr %0, i64 8
  %8 = load ptr, ptr %7, align 8
  %9 = getelementptr inbounds nuw i8, ptr %8, i64 544
  %10 = load ptr, ptr %9, align 8
  %11 = tail call ptr @MemoryContextAllocZero(ptr noundef %10, i64 noundef %1) #9
  store ptr %11, ptr %3, align 8
  br label %12

12:                                               ; preds = %6, %2
  %13 = phi ptr [ %11, %6 ], [ %4, %2 ]
  ret ptr %13
}